; Function Attrs: nounwind uwtable
define ptr @l_Except_orElseLazy___rarg(ptr noundef %0, ptr noundef %1) #0 {
  %3 = ptrtoint ptr %0 to i64
  %4 = and i64 %3, 1
  %.not.i21 = icmp eq i64 %4, 0
  br i1 %.not.i21, label %lean_obj_tag.exit.thread, label %lean_obj_tag.exit

lean_obj_tag.exit:                                ; preds = %2
  %5 = and i64 %3, 8589934590
  %6 = icmp eq i64 %5, 0
  br i1 %6, label %lean_dec.exit16, label %16

lean_obj_tag.exit.thread:                         ; preds = %2
  %7 = getelementptr i8, ptr %0, i64 4
  %.val.i = load i32, ptr %7, align 4
  %8 = icmp ult i32 %.val.i, 16777216
  br i1 %8, label %.thread, label %16

.thread:                                          ; preds = %lean_obj_tag.exit.thread
  %9 = load i32, ptr %0, align 4, !tbaa !4
  %10 = icmp sgt i32 %9, 1
  br i1 %10, label %11, label %13, !prof !13

11:                                               ; preds = %.thread
  %12 = add nsw i32 %9, -1
  store i32 %12, ptr %0, align 4, !tbaa !4
  br label %lean_dec.exit16

13:                                               ; preds = %.thread
  %.not.i = icmp eq i32 %9, 0
  br i1 %.not.i, label %lean_dec.exit16, label %14

14:                                               ; preds = %13
  tail call void @lean_dec_ref_cold(ptr noundef nonnull %0) #5
  br label %lean_dec.exit16

lean_dec.exit16:                                  ; preds = %lean_obj_tag.exit, %14, %13, %11
  %15 = tail call ptr @lean_apply_1(ptr noundef %1, ptr noundef nonnull inttoptr (i64 1 to ptr)) #5
  br label %50

16:                                               ; preds = %lean_obj_tag.exit.thread, %lean_obj_tag.exit
  %17 = ptrtoint ptr %1 to i64
  %18 = and i64 %17, 1
  %.not = icmp eq i64 %18, 0
  br i1 %.not, label %19, label %lean_dec.exit15

19:                                               ; preds = %16
  %20 = load i32, ptr %1, align 4, !tbaa !4
  %21 = icmp sgt i32 %20, 1
  br i1 %21, label %22, label %24, !prof !13

22:                                               ; preds = %19
  %23 = add nsw i32 %20, -1
  store i32 %23, ptr %1, align 4, !tbaa !4
  br label %lean_dec.exit15

24:                                               ; preds = %19
  %.not.i17 = icmp eq i32 %20, 0
  br i1 %.not.i17, label %lean_dec.exit15, label %25

25:                                               ; preds = %24
  tail call void @lean_dec_ref_cold(ptr noundef nonnull %1) #5
  br label %lean_dec.exit15

lean_dec.exit15:                                  ; preds = %25, %24, %22, %16
  %.val = load i32, ptr %0, align 4, !tbaa !4
  %26 = icmp eq i32 %.val, 1
  br i1 %26, label %50, label %27

27:                                               ; preds = %lean_dec.exit15
  %28 = getelementptr inbounds nuw i8, ptr %0, i64 8
  %29 = load ptr, ptr %28, align 8, !tbaa !9
  %30 = ptrtoint ptr %29 to i64
  %31 = and i64 %30, 1
  %.not25 = icmp eq i64 %31, 0
  br i1 %.not25, label %32, label %lean_inc.exit

32:                                               ; preds = %27
  %.val.i22 = load i32, ptr %29, align 4, !tbaa !4
  %33 = icmp sgt i32 %.val.i22, 0
  br i1 %33, label %34, label %36, !prof !13

34:                                               ; preds = %32
  %35 = add nuw i32 %.val.i22, 1
  store i32 %35, ptr %29, align 4, !tbaa !4
  br label %lean_inc.exit

36:                                               ; preds = %32
  %.not.i23 = icmp eq i32 %.val.i22, 0
  br i1 %.not.i23, label %lean_inc.exit, label %37

37:                                               ; preds = %36
  tail call void @lean_inc_ref_cold(ptr noundef nonnull %29) #5
  br label %lean_inc.exit

lean_inc.exit:                                    ; preds = %37, %36, %34, %27
  br i1 %.not.i21, label %38, label %lean_dec.exit

38:                                               ; preds = %lean_inc.exit
  %39 = load i32, ptr %0, align 4, !tbaa !4
  %40 = icmp sgt i32 %39, 1
  br i1 %40, label %41, label %43, !prof !13

41:                                               ; preds = %38
  %42 = add nsw i32 %39, -1
  store i32 %42, ptr %0, align 4, !tbaa !4
  br label %lean_dec.exit

43:                                               ; preds = %38
  %.not.i19 = icmp eq i32 %39, 0
  br i1 %.not.i19, label %lean_dec.exit, label %44

44:                                               ; preds = %43
  tail call void @lean_dec_ref_cold(ptr noundef nonnull %0) #5
  br label %lean_dec.exit

lean_dec.exit:                                    ; preds = %44, %43, %41, %lean_inc.exit
  tail call void @lean_inc_heartbeat() #5
  %45 = tail call noalias ptr @mi_malloc_small(i64 noundef 16) #5
  %46 = icmp eq ptr %45, null
  br i1 %46, label %47, label %lean_alloc_ctor.exit

47:                                               ; preds = %lean_dec.exit
  tail call void @lean_internal_panic_out_of_memory() #6
  unreachable

lean_alloc_ctor.exit:                             ; preds = %lean_dec.exit
  %48 = getelementptr inbounds nuw i8, ptr %45, i64 4
  store i32 1, ptr %45, align 4, !tbaa !4
  store i32 16842768, ptr %48, align 4
  %49 = getelementptr inbounds nuw i8, ptr %45, i64 8
  store ptr %29, ptr %49, align 8, !tbaa !9
  br label %50

50:                                               ; preds = %lean_alloc_ctor.exit, %lean_dec.exit15, %lean_dec.exit16
  %.0 = phi ptr [ %15, %lean_dec.exit16 ], [ %45, %lean_alloc_ctor.exit ], [ %0, %lean_dec.exit15 ]
  ret ptr %.0
}